; Function Attrs: mustprogress uwtable
define hidden void @_ZNK2cv11MatOp_AddEx3addERKNS_7MatExprERKNS_7Scalar_IdEERS1_(ptr nocapture nonnull readnone align 8 %0, ptr noundef nonnull align 8 dereferenceable(352) %1, ptr nocapture noundef nonnull readonly align 8 dereferenceable(32) %2, ptr noundef nonnull align 8 dereferenceable(352) %3) unnamed_addr #8 align 2 personality ptr @__gxx_personality_v0 {
  %5 = alloca %"class.cv::utils::trace::details::Region", align 8
  call void @_ZN2cv5utils5trace7details6RegionC1ERKNS3_21LocationStaticStorageE(ptr noundef nonnull align 8 dereferenceable(12) %5, ptr noundef nonnull align 8 dereferenceable(32) @_ZZNK2cv11MatOp_AddEx3addERKNS_7MatExprERKNS_7Scalar_IdEERS1_E26__cv_trace_location_fn1355)
  call void @llvm.memcpy.p0.p0.i64(ptr noundef nonnull align 8 dereferenceable(12) %3, ptr noundef nonnull align 8 dereferenceable(12) %1, i64 12, i1 false)
  %6 = getelementptr inbounds i8, ptr %3, i64 16
  %7 = getelementptr inbounds i8, ptr %1, i64 16
  %8 = invoke noundef nonnull align 8 dereferenceable(96) ptr @_ZN2cv3MataSERKS0_(ptr noundef nonnull align 8 dereferenceable(96) %6, ptr noundef nonnull align 8 dereferenceable(96) %7)
          to label %.noexc unwind label %47

.noexc:                                           ; preds = %4
  %9 = getelementptr inbounds i8, ptr %3, i64 112
  %10 = getelementptr inbounds i8, ptr %1, i64 112
  %11 = invoke noundef nonnull align 8 dereferenceable(96) ptr @_ZN2cv3MataSERKS0_(ptr noundef nonnull align 8 dereferenceable(96) %9, ptr noundef nonnull align 8 dereferenceable(96) %10)
          to label %.noexc5 unwind label %47

.noexc5:                                          ; preds = %.noexc
  %12 = getelementptr inbounds i8, ptr %3, i64 208
  %13 = getelementptr inbounds i8, ptr %1, i64 208
  %14 = invoke noundef nonnull align 8 dereferenceable(96) ptr @_ZN2cv3MataSERKS0_(ptr noundef nonnull align 8 dereferenceable(96) %12, ptr noundef nonnull align 8 dereferenceable(96) %13)
          to label %15 unwind label %47

15:                                               ; preds = %.noexc5
  %16 = getelementptr inbounds i8, ptr %3, i64 304
  %17 = getelementptr inbounds i8, ptr %1, i64 304
  call void @llvm.memcpy.p0.p0.i64(ptr noundef nonnull align 8 dereferenceable(16) %16, ptr noundef nonnull align 8 dereferenceable(16) %17, i64 16, i1 false)
  %18 = getelementptr inbounds i8, ptr %3, i64 320
  %19 = getelementptr inbounds i8, ptr %1, i64 320
  %20 = load double, ptr %19, align 8
  store double %20, ptr %18, align 8
  %21 = getelementptr inbounds i8, ptr %1, i64 328
  %22 = load double, ptr %21, align 8
  %23 = getelementptr inbounds i8, ptr %3, i64 328
  store double %22, ptr %23, align 8
  %24 = getelementptr inbounds i8, ptr %1, i64 336
  %25 = load double, ptr %24, align 8
  %26 = getelementptr inbounds i8, ptr %3, i64 336
  store double %25, ptr %26, align 8
  %27 = getelementptr inbounds i8, ptr %1, i64 344
  %28 = load double, ptr %27, align 8
  %29 = getelementptr inbounds i8, ptr %3, i64 344
  store double %28, ptr %29, align 8
  %30 = load double, ptr %2, align 8
  %31 = fadd double %20, %30
  store double %31, ptr %18, align 8
  %32 = getelementptr inbounds i8, ptr %2, i64 8
  %33 = load double, ptr %32, align 8
  %34 = fadd double %33, %22
  store double %34, ptr %23, align 8
  %35 = getelementptr inbounds i8, ptr %2, i64 16
  %36 = load double, ptr %35, align 8
  %37 = fadd double %36, %25
  store double %37, ptr %26, align 8
  %38 = getelementptr inbounds i8, ptr %2, i64 24
  %39 = load double, ptr %38, align 8
  %40 = fadd double %39, %28
  store double %40, ptr %29, align 8
  %41 = getelementptr inbounds i8, ptr %5, i64 8
  %42 = load i32, ptr %41, align 8
  %.not.i = icmp eq i32 %42, 0
  br i1 %.not.i, label %_ZN2cv5utils5trace7details6RegionD2Ev.exit, label %43

43:                                               ; preds = %15
  invoke void @_ZN2cv5utils5trace7details6Region7destroyEv(ptr noundef nonnull align 8 dereferenceable(12) %5)
          to label %_ZN2cv5utils5trace7details6RegionD2Ev.exit unwind label %44

44:                                               ; preds = %43
  %45 = landingpad { ptr, i32 }
          catch ptr null
  %46 = extractvalue { ptr, i32 } %45, 0
  call void @__clang_call_terminate(ptr %46) #20
  unreachable

_ZN2cv5utils5trace7details6RegionD2Ev.exit:       ; preds = %15, %43
  ret void

47:                                               ; preds = %.noexc5, %.noexc, %4
  %48 = landingpad { ptr, i32 }
          cleanup
  call void @_ZN2cv5utils5trace7details6RegionD2Ev(ptr noundef nonnull align 8 dereferenceable(12) %5) #21
  resume { ptr, i32 } %48
}